(lp0
(lp1
I79
aI101
aa(lp2
I413
aI208
aa(lp3
I242
aI93
aa(lp4
I280
aI239
aa(lp5
I474
aI195
aa(lp6
I114
aI377
aa(lp7
I2
aI287
aa(lp8
I215
aI172
aa(lp9
I171
aI677
aa(lp10
I315
aI440
aa(lp11
I574
aI688
aa(lp12
I360
aI747
aa(lp13
I868
aI617
aa(lp14
I88
aI333
aa(lp15
I453
aI291
aa(lp16
I414
aI343
aa(lp17
I347
aI148
aa(lp18
I484
aI413
aa(lp19
I311
aI920
aa(lp20
I706
aI357
aa(lp21
I339
aI831
aa(lp22
I699
aI910
aa(lp23
I763
aI75
aa(lp24
I289
aI222
aa(lp25
I905
aI767
aa(lp26
I87
aI69
aa(lp27
I338
aI355
aa(lp28
I792
aI263
aa(lp29
I115
aI245
aa(lp30
I800
aI211
aa(lp31
I170
aI875
aa(lp32
I224
aI534
aa(lp33
I496
aI266
aa(lp34
I837
aI81
aa(lp35
I567
aI86
aa(lp36
I571
aI346
aa(lp37
I522
aI807
aa(lp38
I709
aI297
aa(lp39
I632
aI145
aa(lp40
I459
aI296
aa(lp41
I729
aI607
aa(lp42
I400
aI688
aa(lp43
I0
aI373
aa(lp44
I738
aI774
aa(lp45
I475
aI684
aa(lp46
I583
aI603
aa(lp47
I42
aI745
aa(lp48
I263
aI888
aa(lp49
I465
aI779
aa(lp50
I564
aI797
aa(lp51
I182
aI792
aa(lp52
I646
aI811
aa(lp53
I910
aI28
aa(lp54
I62
aI461
aa(lp55
I25
aI17
aa(lp56
I23
aI234
aa(lp57
I460
aI865
aa(lp58
I201
aI206
aa(lp59
I761
aI86
aa(lp60
I629
aI554
aa(lp61
I564
aI337
aa(lp62
I836
aI497
aa(lp63
I550
aI703
aa(lp64
I920
aI572
aa(lp65
I854
aI555
aa(lp66
I694
aI919
aa(lp67
I622
aI754
aa(lp68
I722
aI16
aa(lp69
I288
aI502
aa(lp70
I489
aI101
aa(lp71
I453
aI773
aa(lp72
I223
aI941
aa(lp73
I922
aI155
aa(lp74
I701
aI740
aa(lp75
I706
aI427
aa(lp76
I278
aI240
aa(lp77
I558
aI610
aa(lp78
I752
aI872
aa(lp79
I770
aI909
aa(lp80
I6
aI212
aa(lp81
I276
aI139
aa(lp82
I113
aI83
aa(lp83
I356
aI113
aa(lp84
I918
aI197
aa(lp85
I755
aI440
aa(lp86
I172
aI449
aa(lp87
I732
aI767
aa(lp88
I590
aI244
aa(lp89
I486
aI535
aa(lp90
I846
aI505
aa(lp91
I498
aI642
aa(lp92
I612
aI512
aa(lp93
I553
aI524
aa(lp94
I775
aI33
aa(lp95
I817
aI653
aa(lp96
I496
aI401
aa(lp97
I782
aI722
aa(lp98
I649
aI290
aa(lp99
I97
aI19
aa(lp100
I848
aI834
aa(lp101
I440
aI562
aa(lp102
I275
aI644
aa(lp103
I182
aI62
aa(lp104
I909
aI677
aa(lp105
I414
aI418
aa(lp106
I160
aI547
aa(lp107
I355
aI479
aa(lp108
I799
aI364
aa(lp109
I621
aI670
aa(lp110
I531
aI335
aa(lp111
I331
aI87
aa(lp112
I560
aI552
aa(lp113
I509
aI300
aa(lp114
I3
aI725
aa(lp115
I924
aI1
aa(lp116
I601
aI133
aa(lp117
I846
aI357
aa(lp118
I383
aI531
aa(lp119
I292
aI817
aa(lp120
I194
aI282
aa(lp121
I615
aI352
aa(lp122
I15
aI588
aa(lp123
I756
aI411
aa(lp124
I498
aI847
aa(lp125
I412
aI290
aa(lp126
I788
aI113
aa(lp127
I193
aI317
aa(lp128
I597
aI702
aa(lp129
I131
aI570
aa(lp130
I914
aI756
aa(lp131
I793
aI781
aa(lp132
I180
aI63
aa(lp133
I421
aI622
aa(lp134
I707
aI848
aa(lp135
I66
aI500
aa(lp136
I96
aI48
aa(lp137
I258
aI655
aa(lp138
I215
aI29
aa(lp139
I42
aI313
aa(lp140
I350
aI629
aa(lp141
I707
aI768
aa(lp142
I890
aI918
aa(lp143
I41
aI916
aa(lp144
I493
aI201
aa(lp145
I60
aI503
aa(lp146
I3
aI558
aa(lp147
I898
aI338
aa(lp148
I519
aI194
aa(lp149
I478
aI301
aa(lp150
I456
aI439
aa(lp151
I239
aI183
aa(lp152
I352
aI34
aa(lp153
I119
aI369
aa(lp154
I98
aI228
aa(lp155
I756
aI415
aa(lp156
I560
aI40
aa(lp157
I6
aI465
aa(lp158
I644
aI156
aa(lp159
I5
aI284
aa(lp160
I907
aI78
aa(lp161
I821
aI402
aa(lp162
I635
aI355
aa(lp163
I548
aI162
aa(lp164
I852
aI426
aa(lp165
I889
aI772
aa(lp166
I76
aI41
aa(lp167
I511
aI33
aa(lp168
I77
aI914
aa(lp169
I212
aI263
aa(lp170
I261
aI248
aa(lp171
I244
aI652
aa(lp172
I183
aI603
aa(lp173
I757
aI830
aa(lp174
I188
aI780
aa(lp175
I861
aI644
aa(lp176
I458
aI798
aa(lp177
I613
aI566
aa(lp178
I745
aI255
aa(lp179
I221
aI395
aa(lp180
I666
aI935
aa(lp181
I12
aI726
aa(lp182
I172
aI903
aa(lp183
I773
aI354
aa(lp184
I94
aI826
aa(lp185
I907
aI432
aa(lp186
I819
aI835
aa(lp187
I723
aI233
aa(lp188
I607
aI739
aa(lp189
I229
aI382
aa(lp190
I567
aI700
aa(lp191
I123
aI676
aa(lp192
I225
aI618
aa(lp193
I295
aI838
aa(lp194
I326
aI327
aa(lp195
I373
aI254
aa(lp196
I343
aI770
aa(lp197
I24
aI582
aa(lp198
I590
aI690
aa(lp199
I308
aI135
aa(lp200
I17
aI53
aa(lp201
I10
aI96
aa(lp202
I340
aI757
aa(lp203
I725
aI181
aa(lp204
I805
aI421
aa(lp205
I712
aI746
aa(lp206
I415
aI184
aa(lp207
I794
aI931
aa(lp208
I598
aI765
aa(lp209
I574
aI923
aa(lp210
I606
aI336
aa(lp211
I653
aI455
aa(lp212
I844
aI909
aa(lp213
I923
aI427
aa(lp214
I20
aI75
aa(lp215
I740
aI228
aa(lp216
I30
aI201
aa(lp217
I754
aI743
aa(lp218
I324
aI330
aa(lp219
I496
aI920
aa(lp220
I626
aI471
aa(lp221
I387
aI572
aa(lp222
I402
aI790
aa(lp223
I573
aI707
aa(lp224
I553
aI736
aa(lp225
I646
aI940
aa(lp226
I296
aI638
aa(lp227
I258
aI386
aa(lp228
I736
aI560
aa(lp229
I688
aI390
aa(lp230
I247
aI17
aa(lp231
I328
aI177
aa(lp232
I557
aI189
aa(lp233
I249
aI102
aa(lp234
I248
aI144
aa(lp235
I375
aI938
aa(lp236
I621
aI648
aa(lp237
I276
aI915
aa(lp238
I349
aI541
aa(lp239
I538
aI790
aa(lp240
I889
aI11
aa(lp241
I597
aI276
aa(lp242
I288
aI83
aa(lp243
I346
aI0
aa(lp244
I235
aI850
aa(lp245
I844
aI92
aa(lp246
I593
aI592
aa(lp247
I305
aI62
aa(lp248
I174
aI229
aa(lp249
I439
aI251
aa(lp250
I499
aI310
aa(lp251
I660
aI73
aa(lp252
I57
aI625
aa(lp253
I769
aI872
aa(lp254
I473
aI343
aa(lp255
I529
aI322
aa(lp256
I937
aI849
aa(lp257
I545
aI718
aa(lp258
I917
aI629
aa(lp259
I454
aI827
aa(lp260
I413
aI915
aa(lp261
I150
aI888
aa(lp262
I458
aI152
aa(lp263
I558
aI183
aa(lp264
I657
aI350
aa(lp265
I604
aI375
aa(lp266
I147
aI161
aa(lp267
I9
aI88
aa(lp268
I297
aI661
aa(lp269
I434
aI539
aa(lp270
I481
aI692
aa(lp271
I898
aI374
aa(lp272
I617
aI576
aa(lp273
I174
aI476
aa(lp274
I534
aI207
aa(lp275
I408
aI199
aa(lp276
I721
aI0
aa(lp277
I673
aI395
aa(lp278
I225
aI15
aa(lp279
I905
aI350
aa(lp280
I286
aI908
aa(lp281
I794
aI184
aa(lp282
I642
aI650
aa(lp283
I202
aI647
aa(lp284
I852
aI774
aa(lp285
I876
aI252
aa(lp286
I432
aI856
aa(lp287
I925
aI294
aa(lp288
I499
aI916
aa(lp289
I121
aI464
aa(lp290
I95
aI767
aa(lp291
I728
aI780
aa(lp292
I511
aI451
aa(lp293
I891
aI484
aa(lp294
I407
aI475
aa(lp295
I90
aI869
aa(lp296
I311
aI285
aa(lp297
I294
aI461
aa(lp298
I650
aI171
aa(lp299
I221
aI390
aa(lp300
I887
aI146
aa(lp301
I752
aI775
aa(lp302
I943
aI397
aa(lp303
I420
aI356
aa(lp304
I107
aI281
aa(lp305
I53
aI175
aa(lp306
I264
aI671
aa(lp307
I13
aI376
aa(lp308
I119
aI933
aa(lp309
I237
aI306
aa(lp310
I186
aI487
aa(lp311
I441
aI588
aa(lp312
I585
aI108
aa(lp313
I352
aI55
aa(lp314
I54
aI94
aa(lp315
I449
aI512
aa(lp316
I253
aI379
aa(lp317
I268
aI88
aa(lp318
I328
aI115
aa(lp319
I651
aI469
aa(lp320
I208
aI378
aa(lp321
I83
aI525
aa(lp322
I651
aI571
aa(lp323
I99
aI759
aa(lp324
I144
aI764
aa(lp325
I242
aI666
aa(lp326
I388
aI14
aa(lp327
I800
aI597
aa(lp328
I299
aI344
aa(lp329
I174
aI656
aa(lp330
I60
aI375
aa(lp331
I278
aI786
aa(lp332
I305
aI806
aa(lp333
I811
aI566
aa(lp334
I249
aI621
aa(lp335
I703
aI867
aa(lp336
I462
aI801
aa(lp337
I422
aI112
aa(lp338
I572
aI802
aa(lp339
I72
aI663
aa(lp340
I121
aI863
aa(lp341
I715
aI195
aa(lp342
I655
aI755
aa(lp343
I147
aI413
aa(lp344
I280
aI172
aa(lp345
I438
aI220
aa(lp346
I936
aI531
aa(lp347
I475
aI573
aa(lp348
I812
aI419
aa(lp349
I0
aI943
aa(lp350
I141
aI57
aa(lp351
I403
aI786
aa(lp352
I425
aI565
aa(lp353
I417
aI478
aa(lp354
I573
aI859
aa(lp355
I633
aI743
aa(lp356
I204
aI8
aa(lp357
I144
aI673
aa(lp358
I893
aI353
aa(lp359
I299
aI680
aa(lp360
I51
aI753
aa(lp361
I801
aI322
aa(lp362
I158
aI193
aa(lp363
I154
aI153
aa(lp364
I70
aI671
aa(lp365
I544
aI581
aa(lp366
I299
aI637
aa(lp367
I237
aI171
aa(lp368
I290
aI859
aa(lp369
I412
aI483
aa(lp370
I542
aI702
aa(lp371
I918
aI413
aa(lp372
I375
aI734
aa(lp373
I479
aI557
aa(lp374
I316
aI102
aa(lp375
I568
aI295
aa(lp376
I781
aI92
aa(lp377
I811
aI727
aa(lp378
I72
aI306
aa(lp379
I244
aI484
aa(lp380
I310
aI896
aa(lp381
I569
aI815
aa(lp382
I549
aI354
aa(lp383
I33
aI48
aa(lp384
I515
aI855
aa(lp385
I83
aI933
aa(lp386
I619
aI486
aa(lp387
I661
aI520
aa(lp388
I274
aI528
aa(lp389
I434
aI923
aa(lp390
I536
aI65
aa(lp391
I311
aI848
aa(lp392
I938
aI361
aa(lp393
I448
aI86
aa(lp394
I80
aI692
aa(lp395
I566
aI766
aa(lp396
I919
aI26
aa(lp397
I619
aI334
aa(lp398
I852
aI763
aa(lp399
I349
aI271
aa(lp400
I221
aI156
aa(lp401
I622
aI661
aa(lp402
I52
aI5
aa(lp403
I859
aI597
aa(lp404
I885
aI394
aa(lp405
I600
aI0
aa(lp406
I810
aI778
aa(lp407
I292
aI12
aa(lp408
I552
aI196
aa(lp409
I300
aI28
aa(lp410
I669
aI753
aa(lp411
I207
aI101
aa(lp412
I217
aI217
aa(lp413
I457
aI440
aa(lp414
I524
aI429
aa(lp415
I379
aI237
aa(lp416
I539
aI520
aa(lp417
I557
aI110
aa(lp418
I197
aI854
aa(lp419
I429
aI916
aa(lp420
I855
aI866
aa(lp421
I144
aI27
aa(lp422
I363
aI45
aa(lp423
I265
aI728
aa(lp424
I795
aI303
aa(lp425
I24
aI776
aa(lp426
I699
aI487
aa(lp427
I296
aI515
aa(lp428
I781
aI765
aa(lp429
I51
aI96
aa(lp430
I345
aI925
aa(lp431
I540
aI54
aa(lp432
I709
aI394
aa(lp433
I105
aI852
aa(lp434
I435
aI347
aa(lp435
I582
aI246
aa(lp436
I70
aI127
aa(lp437
I306
aI327
aa(lp438
I598
aI82
aa(lp439
I219
aI85
aa(lp440
I937
aI787
aa(lp441
I329
aI553
aa(lp442
I821
aI403
aa(lp443
I874
aI550
aa(lp444
I621
aI572
aa(lp445
I659
aI175
aa(lp446
I333
aI71
aa(lp447
I778
aI551
aa(lp448
I215
aI263
aa(lp449
I811
aI487
aa(lp450
I238
aI330
aa(lp451
I785
aI855
aa(lp452
I782
aI498
aa(lp453
I4
aI729
aa(lp454
I176
aI886
aa(lp455
I748
aI468
aa(lp456
I303
aI209
aa(lp457
I201
aI638
aa(lp458
I92
aI133
aa(lp459
I238
aI571
aa(lp460
I355
aI226
aa(lp461
I288
aI501
aa(lp462
I294
aI11
aa(lp463
I248
aI788
aa(lp464
I718
aI74
aa(lp465
I620
aI4
aa(lp466
I519
aI96
aa(lp467
I270
aI248
aa(lp468
I451
aI453
aa(lp469
I664
aI767
aa(lp470
I446
aI63
aa(lp471
I686
aI396
aa(lp472
I92
aI19
aa(lp473
I756
aI823
aa(lp474
I734
aI194
aa(lp475
I658
aI319
aa(lp476
I426
aI542
aa(lp477
I692
aI814
aa(lp478
I158
aI843
aa(lp479
I540
aI266
aa(lp480
I77
aI233
aa(lp481
I496
aI750
aa(lp482
I128
aI922
aa(lp483
I254
aI541
aa(lp484
I47
aI792
aa(lp485
I561
aI422
aa(lp486
I359
aI448
aa(lp487
I700
aI186
aa(lp488
I927
aI608
aa(lp489
I420
aI938
aa(lp490
I742
aI848
aa(lp491
I284
aI247
aa(lp492
I449
aI738
aa(lp493
I233
aI592
aa(lp494
I862
aI666
aa(lp495
I900
aI350
aa(lp496
I636
aI484
aa(lp497
I420
aI104
aa(lp498
I306
aI865
aa(lp499
I773
aI80
aa(lp500
I369
aI594
aa(lp501
I795
aI252
aa(lp502
I482
aI335
aa(lp503
I275
aI336
aa(lp504
I517
aI849
aa(lp505
I517
aI563
aa(lp506
I845
aI312
aa(lp507
I492
aI246
aa(lp508
I715
aI104
aa(lp509
I132
aI912
aa(lp510
I709
aI926
aa(lp511
I511
aI883
aa(lp512
I743
aI927
aa(lp513
I523
aI358
aa(lp514
I81
aI403
aa(lp515
I303
aI577
aa(lp516
I51
aI498
aa(lp517
I768
aI433
aa(lp518
I826
aI480
aa(lp519
I594
aI455
aa(lp520
I16
aI843
aa(lp521
I924
aI903
aa(lp522
I273
aI688
aa(lp523
I760
aI574
aa(lp524
I527
aI93
aa(lp525
I926
aI268
aa(lp526
I909
aI373
aa(lp527
I382
aI492
aa(lp528
I140
aI281
aa(lp529
I817
aI604
aa(lp530
I942
aI770
aa(lp531
I77
aI417
aa(lp532
I522
aI491
aa(lp533
I173
aI0
aa(lp534
I493
aI162
aa(lp535
I314
aI780
aa(lp536
I528
aI906
aa(lp537
I611
aI379
aa(lp538
I779
aI604
aa(lp539
I809
aI403
aa(lp540
I938
aI944
aa(lp541
I365
aI135
aa(lp542
I661
aI342
aa(lp543
I793
aI439
aa(lp544
I641
aI406
aa(lp545
I35
aI309
aa(lp546
I441
aI886
aa(lp547
I846
aI657
aa(lp548
I309
aI120
aa(lp549
I166
aI483
aa(lp550
I144
aI862
aa(lp551
I319
aI882
aa(lp552
I119
aI3
aa(lp553
I505
aI384
aa(lp554
I817
aI70
aa(lp555
I581
aI524
aa(lp556
I628
aI374
aa(lp557
I268
aI132
aa(lp558
I691
aI214
aa(lp559
I409
aI914
aa(lp560
I64
aI598
aa(lp561
I764
aI546
aa(lp562
I331
aI753
aa(lp563
I762
aI904
aa(lp564
I557
aI432
aa(lp565
I306
aI133
aa(lp566
I909
aI286
aa(lp567
I488
aI818
aa(lp568
I518
aI432
aa(lp569
I296
aI183
aa(lp570
I236
aI388
aa(lp571
I510
aI547
aa(lp572
I436
aI367
aa(lp573
I478
aI294
aa(lp574
I226
aI202
aa(lp575
I653
aI936
aa(lp576
I680
aI725
aa(lp577
I641
aI76
aa(lp578
I678
aI617
aa(lp579
I82
aI785
aa(lp580
I828
aI926
aa(lp581
I467
aI936
aa(lp582
I297
aI758
aa(lp583
I114
aI141
aa(lp584
I156
aI112
aa(lp585
I35
aI341
aa(lp586
I84
aI155
aa(lp587
I99
aI928
aa(lp588
I618
aI924
aa(lp589
I348
aI322
aa(lp590
I845
aI315
aa(lp591
I753
aI68
aa(lp592
I48
aI140
aa(lp593
I914
aI700
aa(lp594
I93
aI686
aa(lp595
I522
aI597
aa(lp596
I430
aI286
aa(lp597
I700
aI571
aa(lp598
I939
aI691
aa(lp599
I536
aI556
aa(lp600
I792
aI675
aa(lp601
I504
aI159
aa(lp602
I481
aI374
aa(lp603
I87
aI369
aa(lp604
I451
aI304
aa(lp605
I659
aI473
aa(lp606
I915
aI240
aa(lp607
I898
aI181
aa(lp608
I932
aI215
aa(lp609
I391
aI661
aa(lp610
I379
aI404
aa(lp611
I345
aI227
aa(lp612
I942
aI676
aa(lp613
I393
aI483
aa(lp614
I111
aI684
aa(lp615
I545
aI295
aa(lp616
I380
aI140
aa(lp617
I325
aI794
aa(lp618
I333
aI520
aa(lp619
I547
aI771
aa(lp620
I460
aI59
aa(lp621
I652
aI822
aa(lp622
I423
aI29
aa(lp623
I845
aI832
aa(lp624
I272
aI642
aa(lp625
I11
aI527
aa(lp626
I930
aI754
aa(lp627
I217
aI14
aa(lp628
I390
aI271
aa(lp629
I695
aI458
aa(lp630
I776
aI461
aa(lp631
I511
aI226
aa(lp632
I407
aI89
aa(lp633
I163
aI507
aa(lp634
I540
aI744
aa(lp635
I851
aI91
aa(lp636
I916
aI552
aa(lp637
I33
aI847
aa(lp638
I6
aI619
aa(lp639
I521
aI610
aa(lp640
I238
aI333
aa(lp641
I210
aI327
aa(lp642
I39
aI181
aa(lp643
I204
aI912
aa(lp644
I194
aI392
aa(lp645
I139
aI124
aa(lp646
I727
aI925
aa(lp647
I401
aI365
aa(lp648
I56
aI767
aa(lp649
I501
aI529
aa(lp650
I551
aI828
aa(lp651
I716
aI743
aa(lp652
I462
aI682
aa(lp653
I47
aI682
aa(lp654
I775
aI804
aa(lp655
I665
aI474
aa(lp656
I736
aI412
aa(lp657
I503
aI3
aa(lp658
I135
aI540
aa(lp659
I532
aI44
aa(lp660
I701
aI238
aa(lp661
I465
aI564
aa(lp662
I904
aI259
aa(lp663
I283
aI645
aa(lp664
I1
aI252
aa(lp665
I234
aI770
aa(lp666
I306
aI573
aa(lp667
I678
aI622
aa(lp668
I911
aI639
aa(lp669
I746
aI155
aa(lp670
I263
aI104
aa(lp671
I938
aI615
aa(lp672
I378
aI151
aa(lp673
I460
aI639
aa(lp674
I769
aI704
aa(lp675
I843
aI425
aa(lp676
I692
aI197
aa(lp677
I192
aI288
aa(lp678
I478
aI302
aa(lp679
I321
aI22
aa(lp680
I876
aI877
aa(lp681
I593
aI460
aa(lp682
I599
aI382
aa(lp683
I645
aI751
aa(lp684
I610
aI244
aa(lp685
I578
aI451
aa(lp686
I150
aI23
aa(lp687
I676
aI174
aa(lp688
I114
aI569
aa(lp689
I200
aI839
aa(lp690
I37
aI393
aa(lp691
I25
aI77
aa(lp692
I773
aI168
aa(lp693
I736
aI926
aa(lp694
I775
aI899
aa(lp695
I755
aI765
aa(lp696
I899
aI844
aa(lp697
I615
aI426
aa(lp698
I193
aI747
aa(lp699
I319
aI453
aa(lp700
I325
aI679
aa(lp701
I248
aI346
aa(lp702
I702
aI923
aa(lp703
I518
aI121
aa(lp704
I421
aI879
aa(lp705
I797
aI379
aa(lp706
I146
aI225
aa(lp707
I273
aI129
aa(lp708
I171
aI462
aa(lp709
I250
aI903
aa(lp710
I234
aI598
aa(lp711
I178
aI69
aa(lp712
I930
aI757
aa(lp713
I544
aI899
aa(lp714
I473
aI428
aa(lp715
I635
aI358
aa(lp716
I426
aI744
aa(lp717
I705
aI40
aa(lp718
I581
aI579
aa(lp719
I167
aI821
aa(lp720
I653
aI289
aa(lp721
I736
aI717
aa(lp722
I876
aI267
aa(lp723
I793
aI266
aa(lp724
I447
aI11
aa(lp725
I532
aI121
aa(lp726
I671
aI450
aa(lp727
I482
aI832
aa(lp728
I698
aI357
aa(lp729
I66
aI767
aa(lp730
I918
aI472
aa(lp731
I892
aI200
aa(lp732
I547
aI448
aa(lp733
I871
aI6
aa(lp734
I260
aI782
aa(lp735
I553
aI631
aa(lp736
I331
aI586
aa(lp737
I887
aI170
aa(lp738
I283
aI29
aa(lp739
I613
aI659
aa(lp740
I79
aI659
aa(lp741
I543
aI677
aa(lp742
I605
aI216
aa(lp743
I97
aI739
aa(lp744
I164
aI378
aa(lp745
I5
aI337
aa(lp746
I522
aI255
aa(lp747
I137
aI501
aa(lp748
I24
aI531
aa(lp749
I139
aI298
aa(lp750
I317
aI780
aa(lp751
I201
aI245
aa(lp752
I923
aI907
aa(lp753
I256
aI423
aa(lp754
I503
aI438
aa(lp755
I782
aI114
aa(lp756
I40
aI879
aa(lp757
I254
aI189
aa(lp758
I218
aI628
aa(lp759
I507
aI940
aa(lp760
I703
aI207
aa(lp761
I290
aI369
aa(lp762
I338
aI667
aa(lp763
I337
aI370
aa(lp764
I147
aI548
aa(lp765
I484
aI66
aa(lp766
I618
aI887
aa(lp767
I56
aI914
aa(lp768
I365
aI550
aa(lp769
I643
aI267
aa(lp770
I849
aI926
aa(lp771
I860
aI30
aa(lp772
I112
aI438
aa(lp773
I677
aI763
aa(lp774
I380
aI327
aa(lp775
I13
aI489
aa(lp776
I290
aI56
aa(lp777
I697
aI370
aa(lp778
I440
aI633
aa(lp779
I246
aI209
aa(lp780
I20
aI567
aa(lp781
I799
aI40
aa(lp782
I406
aI467
aa(lp783
I812
aI458
aa(lp784
I189
aI905
aa(lp785
I179
aI180
aa(lp786
I11
aI308
aa(lp787
I267
aI581
aa(lp788
I457
aI860
aa(lp789
I906
aI360
aa(lp790
I561
aI222
aa(lp791
I505
aI111
aa(lp792
I440
aI462
aa(lp793
I208
aI640
aa(lp794
I858
aI161
aa(lp795
I136
aI170
aa(lp796
I591
aI659
aa(lp797
I568
aI52
aa(lp798
I835
aI160
aa(lp799
I837
aI316
aa(lp800
I38
aI370
aa(lp801
I851
aI108
aa(lp802
I60
aI880
aa(lp803
I844
aI550
aa(lp804
I504
aI442
aa(lp805
I87
aI846
aa(lp806
I615
aI856
aa(lp807
I95
aI185
aa(lp808
I776
aI513
aa(lp809
I908
aI420
aa(lp810
I678
aI294
aa(lp811
I126
aI593
aa(lp812
I755
aI791
aa(lp813
I137
aI17
aa(lp814
I847
aI214
aa(lp815
I58
aI262
aa(lp816
I180
aI320
aa(lp817
I279
aI59
aa(lp818
I59
aI871
aa(lp819
I862
aI806
aa(lp820
I883
aI282
aa(lp821
I286
aI436
aa(lp822
I295
aI829
aa(lp823
I682
aI290
aa(lp824
I390
aI746
aa(lp825
I700
aI906
aa(lp826
I361
aI517
aa(lp827
I903
aI791
aa(lp828
I443
aI206
aa(lp829
I287
aI762
aa(lp830
I682
aI132
aa(lp831
I263
aI503
aa(lp832
I364
aI479
aa(lp833
I621
aI429
aa(lp834
I248
aI116
aa(lp835
I184
aI924
aa(lp836
I523
aI70
aa(lp837
I801
aI458
aa(lp838
I271
aI481
aa(lp839
I542
aI168
aa(lp840
I749
aI895
aa(lp841
I181
aI113
aa(lp842
I64
aI204
aa(lp843
I736
aI903
aa(lp844
I406
aI777
aa(lp845
I357
aI190
aa(lp846
I71
aI929
aa(lp847
I221
aI351
aa(lp848
I740
aI391
aa(lp849
I428
aI652
aa(lp850
I213
aI409
aa(lp851
I309
aI830
aa(lp852
I679
aI915
aa(lp853
I432
aI462
aa(lp854
I204
aI444
aa(lp855
I736
aI659
aa(lp856
I830
aI465
aa(lp857
I225
aI717
aa(lp858
I862
aI105
aa(lp859
I903
aI813
aa(lp860
I913
aI861
aa(lp861
I270
aI898
aa(lp862
I116
aI126
aa(lp863
I178
aI65
aa(lp864
I145
aI250
aa(lp865
I657
aI329
aa(lp866
I53
aI364
aa(lp867
I341
aI443
aa(lp868
I736
aI533
aa(lp869
I189
aI941
aa(lp870
I674
aI241
aa(lp871
I257
aI791
aa(lp872
I385
aI107
aa(lp873
I409
aI445
aa(lp874
I923
aI238
aa(lp875
I137
aI347
aa(lp876
I301
aI416
aa(lp877
I202
aI597
aa(lp878
I610
aI323
aa(lp879
I544
aI754
aa(lp880
I97
aI605
aa(lp881
I440
aI156
aa(lp882
I183
aI85
aa(lp883
I215
aI885
aa(lp884
I712
aI84
aa(lp885
I354
aI377
aa(lp886
I29
aI102
aa(lp887
I347
aI133
aa(lp888
I412
aI108
aa(lp889
I422
aI566
aa(lp890
I568
aI116
aa(lp891
I471
aI75
aa(lp892
I489
aI232
aa(lp893
I53
aI425
aa(lp894
I22
aI372
aa(lp895
I102
aI135
aa(lp896
I243
aI860
aa(lp897
I941
aI484
aa(lp898
I355
aI721
aa(lp899
I881
aI752
aa(lp900
I400
aI517
aa(lp901
I799
aI442
aa(lp902
I906
aI375
aa(lp903
I90
aI873
aa(lp904
I369
aI815
aa(lp905
I165
aI239
aa(lp906
I708
aI395
aa(lp907
I783
aI753
aa(lp908
I606
aI779
aa(lp909
I448
aI841
aa(lp910
I813
aI839
aa(lp911
I402
aI660
aa(lp912
I16
aI181
aa(lp913
I211
aI345
aa(lp914
I815
aI479
aa(lp915
I612
aI359
aa(lp916
I508
aI33
aa(lp917
I262
aI655
aa(lp918
I38
aI765
aa(lp919
I827
aI159
aa(lp920
I647
aI432
aa(lp921
I569
aI378
aa(lp922
I942
aI908
aa(lp923
I921
aI837
aa(lp924
I805
aI493
aa(lp925
I584
aI911
aa(lp926
I201
aI284
aa(lp927
I659
aI466
aa(lp928
I307
aI409
aa(lp929
I855
aI909
aa(lp930
I507
aI657
aa(lp931
I743
aI914
aa(lp932
I8
aI810
aa(lp933
I285
aI241
aa(lp934
I217
aI541
aa(lp935
I141
aI355
aa(lp936
I874
aI676
aa(lp937
I347
aI407
aa(lp938
I185
aI937
aa(lp939
I365
aI194
aa(lp940
I532
aI306
aa(lp941
I484
aI885
aa(lp942
I413
aI444
aa(lp943
I321
aI845
aa(lp944
I665
aI546
aa(lp945
I641
aI810
aa(lp946
I30
aI467
aa(lp947
I475
aI109
aa(lp948
I326
aI265
aa(lp949
I75
aI789
aa(lp950
I602
aI797
aa(lp951
I9
aI613
aa(lp952
I902
aI22
aa(lp953
I226
aI795
aa(lp954
I815
aI130
aa(lp955
I625
aI552
aa(lp956
I874
aI144
aa(lp957
I383
aI453
aa(lp958
I300
aI821
aa(lp959
I340
aI473
aa(lp960
I929
aI867
aa(lp961
I717
aI866
aa(lp962
I182
aI734
aa(lp963
I443
aI318
aa(lp964
I800
aI539
aa(lp965
I212
aI601
aa(lp966
I86
aI537
aa(lp967
I331
aI759
aa(lp968
I685
aI521
aa(lp969
I795
aI928
aa(lp970
I737
aI841
aa(lp971
I143
aI544
aa(lp972
I43
aI194
aa(lp973
I43
aI353
aa(lp974
I331
aI322
aa(lp975
I147
aI211
aa(lp976
I385
aI619
aa(lp977
I269
aI359
aa(lp978
I712
aI884
aa(lp979
I24
aI759
aa(lp980
I274
aI919
aa(lp981
I578
aI594
aa(lp982
I818
aI597
aa(lp983
I898
aI174
aa(lp984
I398
aI480
aa(lp985
I910
aI200
aa(lp986
I437
aI349
aa(lp987
I708
aI134
aa(lp988
I501
aI788
aa(lp989
I54
aI773
aa(lp990
I313
aI624
aa(lp991
I114
aI536
aa(lp992
I910
aI232
aa(lp993
I337
aI340
aa(lp994
I117
aI279
aa(lp995
I107
aI801
aa(lp996
I866
aI470
aa(lp997
I437
aI315
aa(lp998
I851
aI488
aa(lp999
I164
aI526
aa(lp1000
I913
aI783
aa.